target datalayout = "e-m:e-p270:32:32-p271:32:32-p272:64:64-i64:64-i128:128-f80:128-n8:16:32:64-S128"
target triple = "x86_64-pc-linux-gnu"

%"class.pxrInternal_v0_24__pxrReserved__::UsdSchemaBase" = type { ptr, %"class.pxrInternal_v0_24__pxrReserved__::Usd_PrimDataHandle", %"class.pxrInternal_v0_24__pxrReserved__::SdfPath" }
%"class.pxrInternal_v0_24__pxrReserved__::Usd_PrimDataHandle" = type { %"class.pxrInternal_v0_24__pxrReserved__::TfDelegatedCountPtr" }
%"class.pxrInternal_v0_24__pxrReserved__::TfDelegatedCountPtr" = type { ptr }
%"class.pxrInternal_v0_24__pxrReserved__::SdfPath" = type { %"struct.pxrInternal_v0_24__pxrReserved__::Sdf_PathNodeHandleImpl", %"struct.pxrInternal_v0_24__pxrReserved__::Sdf_PathNodeHandleImpl.0" }
%"struct.pxrInternal_v0_24__pxrReserved__::Sdf_PathNodeHandleImpl" = type { %"struct.pxrInternal_v0_24__pxrReserved__::Sdf_Pool<pxrInternal_v0_24__pxrReserved__::Sdf_PathPrimTag, 24, 8>::Handle" }
%"struct.pxrInternal_v0_24__pxrReserved__::Sdf_Pool<pxrInternal_v0_24__pxrReserved__::Sdf_PathPrimTag, 24, 8>::Handle" = type { i32 }
%"struct.pxrInternal_v0_24__pxrReserved__::Sdf_PathNodeHandleImpl.0" = type { %"struct.pxrInternal_v0_24__pxrReserved__::Sdf_Pool<pxrInternal_v0_24__pxrReserved__::Sdf_PathPropTag, 24, 8>::Handle" }
%"struct.pxrInternal_v0_24__pxrReserved__::Sdf_Pool<pxrInternal_v0_24__pxrReserved__::Sdf_PathPropTag, 24, 8>::Handle" = type { i32 }
%"class.pxrInternal_v0_24__pxrReserved__::UsdObject" = type { i32, %"class.pxrInternal_v0_24__pxrReserved__::Usd_PrimDataHandle", %"class.pxrInternal_v0_24__pxrReserved__::SdfPath", %"class.pxrInternal_v0_24__pxrReserved__::TfToken" }
%"class.pxrInternal_v0_24__pxrReserved__::TfToken" = type { %"class.pxrInternal_v0_24__pxrReserved__::TfPointerAndBits" }
%"class.pxrInternal_v0_24__pxrReserved__::TfPointerAndBits" = type { ptr }
%"class.pxrInternal_v0_24__pxrReserved__::UsdAttribute" = type { %"class.pxrInternal_v0_24__pxrReserved__::UsdProperty" }
%"class.pxrInternal_v0_24__pxrReserved__::UsdProperty" = type { %"class.pxrInternal_v0_24__pxrReserved__::UsdObject" }
%"class.pxrInternal_v0_24__pxrReserved__::UsdLuxLightAPI" = type { %"class.pxrInternal_v0_24__pxrReserved__::UsdAPISchemaBase" }
%"class.pxrInternal_v0_24__pxrReserved__::UsdAPISchemaBase" = type { %"class.pxrInternal_v0_24__pxrReserved__::UsdSchemaBase", %"class.pxrInternal_v0_24__pxrReserved__::TfToken" }

; Function Attrs: mustprogress uwtable
define void @_ZNK32pxrInternal_v0_24__pxrReserved__27UsdLuxNonboundableLightBase19CreateIntensityAttrERKNS_7VtValueEb(ptr dead_on_unwind noalias writable sret(%"class.pxrInternal_v0_24__pxrReserved__::UsdAttribute") align 8 %0, ptr noundef nonnull align 8 dereferenceable(24) %1, ptr noundef nonnull align 8 dereferenceable(16) %2, i1 noundef zeroext %3) #0 align 2 personality ptr @__gxx_personality_v0 {
  %5 = alloca ptr, align 8
  %6 = alloca ptr, align 8
  %7 = alloca ptr, align 8
  %8 = alloca i8, align 1
  %9 = alloca %"class.pxrInternal_v0_24__pxrReserved__::UsdLuxLightAPI", align 8
  %10 = alloca ptr, align 8
  %11 = alloca i32, align 4
  store ptr %0, ptr %5, align 8
  store ptr %1, ptr %6, align 8
  store ptr %2, ptr %7, align 8
  %12 = zext i1 %3 to i8
  store i8 %12, ptr %8, align 1
  %13 = load ptr, ptr %6, align 8
  call void @_ZNK32pxrInternal_v0_24__pxrReserved__27UsdLuxNonboundableLightBase8LightAPIEv(ptr dead_on_unwind writable sret(%"class.pxrInternal_v0_24__pxrReserved__::UsdLuxLightAPI") align 8 %9, ptr noundef nonnull align 8 dereferenceable(24) %13)
  %14 = load ptr, ptr %7, align 8
  %15 = load i8, ptr %8, align 1
  %16 = trunc i8 %15 to i1
  invoke void @_ZNK32pxrInternal_v0_24__pxrReserved__14UsdLuxLightAPI19CreateIntensityAttrERKNS_7VtValueEb(ptr dead_on_unwind writable sret(%"class.pxrInternal_v0_24__pxrReserved__::UsdAttribute") align 8 %0, ptr noundef nonnull align 8 dereferenceable(32) %9, ptr noundef nonnull align 8 dereferenceable(16) %14, i1 noundef zeroext %16)
          to label %17 unwind label %18

17:                                               ; preds = %4
  call void @_ZN32pxrInternal_v0_24__pxrReserved__14UsdLuxLightAPID1Ev(ptr noundef nonnull align 8 dereferenceable(32) %9) #6
  ret void

18:                                               ; preds = %4
  %19 = landingpad { ptr, i32 }
          cleanup
  %20 = extractvalue { ptr, i32 } %19, 0
  store ptr %20, ptr %10, align 8
  %21 = extractvalue { ptr, i32 } %19, 1
  store i32 %21, ptr %11, align 4
  call void @_ZN32pxrInternal_v0_24__pxrReserved__14UsdLuxLightAPID1Ev(ptr noundef nonnull align 8 dereferenceable(32) %9) #6
  br label %22

22:                                               ; preds = %18
  %23 = load ptr, ptr %10, align 8
  %24 = load i32, ptr %11, align 4
  %25 = insertvalue { ptr, i32 } poison, ptr %23, 0
  %26 = insertvalue { ptr, i32 } %25, i32 %24, 1
  resume { ptr, i32 } %26
}